target datalayout = "e-m:e-p270:32:32-p271:32:32-p272:64:64-i64:64-i128:128-f80:128-n8:16:32:64-S128"
target triple = "x86_64-pc-linux-gnu"

%struct.AddressSpace = type { %struct.rcu_head, ptr, ptr, ptr, i32, i32, ptr, %union.anon, %union.anon.0, i64, i64, %struct.QemuMutex, %struct.anon }
%struct.rcu_head = type { ptr, ptr }
%union.anon = type { %struct.QTailQLink }
%struct.QTailQLink = type { ptr, ptr }
%union.anon.0 = type { %struct.QTailQLink }
%struct.QemuMutex = type { %union.pthread_mutex_t, i8 }
%union.pthread_mutex_t = type { %struct.__pthread_mutex_s }
%struct.__pthread_mutex_s = type { i32, i32, i32, i32, i32, i16, i16, %struct.__pthread_internal_list }
%struct.__pthread_internal_list = type { ptr, ptr }
%struct.anon = type { ptr }
%struct.VirtIOPCIProxy = type { %struct.PCIDevice, %struct.MemoryRegion, %union.anon.7, %struct.MemoryRegion, %struct.MemoryRegion, %struct.AddressSpace, %struct.AddressSpace, i32, i32, i32, i32, i32, i32, i8, i8, i32, i16, i32, i32, i32, i32, [2 x i32], [1024 x %struct.VirtIOPCIQueue], ptr, i32, %struct.VirtioBusState }
%struct.PCIDevice = type { %struct.DeviceState, i8, i8, ptr, ptr, ptr, ptr, ptr, i32, %struct.PCIReqIDCache, [64 x i8], [7 x %struct.PCIIORegion], %struct.AddressSpace, %struct.MemoryRegion, %struct.MemoryRegion, ptr, ptr, [3 x ptr], i8, i8, i32, i8, i32, ptr, ptr, ptr, ptr, ptr, ptr, %struct.MemoryRegion, %struct.MemoryRegion, %struct.MemoryRegion, ptr, i8, i32, i8, %struct.PCIExpressDevice, ptr, ptr, i32, i8, %struct.MemoryRegion, i32, ptr, ptr, ptr, ptr, i16, %struct.DOECap, ptr, i32, i32 }
%struct.DeviceState = type { %struct.Object, ptr, ptr, i8, i8, i64, i32, i8, ptr, %struct.NamedGPIOListHead, %struct.NamedClockListHead, %struct.BusStateHead, i32, i32, i32, %struct.ResettableState, ptr, %struct.MemReentrancyGuard }
%struct.Object = type { ptr, ptr, ptr, i32, ptr }
%struct.NamedGPIOListHead = type { ptr }
%struct.NamedClockListHead = type { ptr }
%struct.BusStateHead = type { ptr }
%struct.ResettableState = type { i32, i8, i8 }
%struct.MemReentrancyGuard = type { i8 }
%struct.PCIReqIDCache = type { ptr, i32 }
%struct.PCIIORegion = type { i64, i64, i8, ptr, ptr }
%struct.PCIExpressDevice = type { i8, i8, i8, i16, %struct.PCIEAERLog, i16, i16, i16, %struct.PCIESriovPF, %struct.PCIESriovVF }
%struct.PCIEAERLog = type { i16, i16, ptr }
%struct.PCIESriovPF = type { i16, [7 x i8], ptr, ptr }
%struct.PCIESriovVF = type { ptr, i16 }
%struct.DOECap = type { ptr, i16, %struct.anon.4, %struct.anon.5, %struct.anon.6, ptr, ptr, i32, i32, i32, ptr, i16, i32 }
%struct.anon.4 = type { i8, i16 }
%struct.anon.5 = type { i8, i8, i8 }
%struct.anon.6 = type { i8, i8, i8, i8 }
%union.anon.7 = type { %struct.anon.8 }
%struct.anon.8 = type { %struct.VirtIOPCIRegion, %struct.VirtIOPCIRegion, %struct.VirtIOPCIRegion, %struct.VirtIOPCIRegion, %struct.VirtIOPCIRegion }
%struct.VirtIOPCIRegion = type { %struct.MemoryRegion, i32, i32, i32 }
%struct.MemoryRegion = type { %struct.Object, i8, i8, i8, i8, i8, i8, i8, i8, i8, i8, ptr, ptr, ptr, ptr, ptr, ptr, i32, i128, i64, ptr, i64, i8, i8, i8, i8, ptr, i64, i32, %union.anon.1, %union.anon.2, %union.anon.3, ptr, i32, ptr, ptr, i8 }
%union.anon.1 = type { %struct.QTailQLink }
%union.anon.2 = type { %struct.QTailQLink }
%union.anon.3 = type { %struct.QTailQLink }
%struct.VirtIOPCIQueue = type { i16, i8, i8, [2 x i32], [2 x i32], [2 x i32] }
%struct.VirtioBusState = type { %struct.BusState, i8, i32 }
%struct.BusState = type { %struct.Object, ptr, ptr, ptr, i32, i8, i8, i32, %union.BusChildHead, %struct.BusStateEntry, %struct.ResettableState }
%union.BusChildHead = type { %struct.QTailQLink }
%struct.BusStateEntry = type { ptr, ptr }
%struct.BusChild = type { %struct.rcu_head, ptr, i32, %union.anon.13 }
%union.anon.13 = type { %struct.QTailQLink }
%struct.timeval = type { i64, i64 }

@trace_events_enabled_count = external global i32, align 4
@message_with_timestamp = external global i8, align 1
@qemu_loglevel = external global i32, align 4
@_TRACE_VIRTIO_PCI_NOTIFY_WRITE_PIO_DSTATE = external global i16, align 2
@.str.62 = private unnamed_addr constant [61 x i8] c"%d@%zu.%06zu:virtio_pci_notify_write_pio 0x%lx = 0x%lx (%d)\0A\00", align 1
@.str.63 = private unnamed_addr constant [48 x i8] c"virtio_pci_notify_write_pio 0x%lx = 0x%lx (%d)\0A\00", align 1

; Function Attrs: inlinehint nounwind sspstrong uwtable
define internal zeroext i1 @qemu_loglevel_mask(i32 noundef %0) #4 {
  %2 = alloca i32, align 4
  store i32 %0, ptr %2, align 4
  %3 = load i32, ptr @qemu_loglevel, align 4
  %4 = load i32, ptr %2, align 4
  %5 = and i32 %3, %4
  %6 = icmp ne i32 %5, 0
  ret i1 %6
}

; Function Attrs: inlinehint nounwind sspstrong uwtable
define internal void @_nocheck__trace_virtio_pci_notify_write_pio(i64 noundef %0, i64 noundef %1, i32 noundef %2) #4 {
  %4 = alloca i64, align 8
  %5 = alloca i64, align 8
  %6 = alloca i32, align 4
  %7 = alloca %struct.timeval, align 8
  store i64 %0, ptr %4, align 8
  store i64 %1, ptr %5, align 8
  store i32 %2, ptr %6, align 4
  %8 = load i32, ptr @trace_events_enabled_count, align 4
  %9 = icmp ne i32 %8, 0
  %10 = xor i1 %9, true
  %11 = xor i1 %10, true
  %12 = zext i1 %11 to i32
  %13 = sext i32 %12 to i64
  %14 = call i64 @llvm.expect.i64(i64 %13, i64 0)
  %15 = icmp ne i64 %14, 0
  br i1 %15, label %16, label %40

16:                                               ; preds = %3
  %17 = load i16, ptr @_TRACE_VIRTIO_PCI_NOTIFY_WRITE_PIO_DSTATE, align 2
  %18 = zext i16 %17 to i32
  %19 = icmp ne i32 %18, 0
  br i1 %19, label %20, label %40

20:                                               ; preds = %16
  %21 = call zeroext i1 @qemu_loglevel_mask(i32 noundef 32768)
  br i1 %21, label %22, label %40

22:                                               ; preds = %20
  %23 = load i8, ptr @message_with_timestamp, align 1, !range !7, !noundef !8
  %24 = trunc i8 %23 to i1
  br i1 %24, label %25, label %35

25:                                               ; preds = %22
  call void @llvm.lifetime.start.p0(i64 16, ptr %7) #13
  call void @llvm.memset.p0.i64(ptr align 8 %7, i8 0, i64 16, i1 false), !annotation !4
  %26 = call i32 @gettimeofday(ptr noundef %7, ptr noundef null) #13
  %27 = call i32 @qemu_get_thread_id()
  %28 = getelementptr inbounds nuw %struct.timeval, ptr %7, i32 0, i32 0
  %29 = load i64, ptr %28, align 8
  %30 = getelementptr inbounds nuw %struct.timeval, ptr %7, i32 0, i32 1
  %31 = load i64, ptr %30, align 8
  %32 = load i64, ptr %4, align 8
  %33 = load i64, ptr %5, align 8
  %34 = load i32, ptr %6, align 4
  call void (ptr, ...) @qemu_log(ptr noundef @.str.62, i32 noundef %27, i64 noundef %29, i64 noundef %31, i64 noundef %32, i64 noundef %33, i32 noundef %34)
  call void @llvm.lifetime.end.p0(i64 16, ptr %7) #13
  br label %39

35:                                               ; preds = %22
  %36 = load i64, ptr %4, align 8
  %37 = load i64, ptr %5, align 8
  %38 = load i32, ptr %6, align 4
  call void (ptr, ...) @qemu_log(ptr noundef @.str.63, i64 noundef %36, i64 noundef %37, i32 noundef %38)
  br label %39

39:                                               ; preds = %35, %25
  br label %40

40:                                               ; preds = %39, %20, %16, %3
  ret void
}

; Function Attrs: inlinehint nounwind sspstrong uwtable
define internal void @trace_virtio_pci_notify_write_pio(i64 noundef %0, i64 noundef %1, i32 noundef %2) #4 {
  %4 = alloca i64, align 8
  %5 = alloca i64, align 8
  %6 = alloca i32, align 4
  store i64 %0, ptr %4, align 8
  store i64 %1, ptr %5, align 8
  store i32 %2, ptr %6, align 4
  %7 = load i64, ptr %4, align 8
  %8 = load i64, ptr %5, align 8
  %9 = load i32, ptr %6, align 4
  call void @_nocheck__trace_virtio_pci_notify_write_pio(i64 noundef %7, i64 noundef %8, i32 noundef %9)
  ret void
}

; Function Attrs: inlinehint nounwind sspstrong uwtable
define internal ptr @virtio_bus_get_device(ptr noundef %0) #4 {
  %2 = alloca ptr, align 8
  %3 = alloca ptr, align 8
  %4 = alloca ptr, align 8
  %5 = alloca ptr, align 8
  store ptr %0, ptr %2, align 8
  call void @llvm.lifetime.start.p0(i64 8, ptr %3) #13
  %6 = load ptr, ptr %2, align 8
  %7 = getelementptr inbounds nuw %struct.VirtioBusState, ptr %6, i32 0, i32 0
  store ptr %7, ptr %3, align 8
  call void @llvm.lifetime.start.p0(i64 8, ptr %4) #13
  %8 = load ptr, ptr %3, align 8
  %9 = getelementptr inbounds nuw %struct.BusState, ptr %8, i32 0, i32 8
  %10 = load ptr, ptr %9, align 8
  store ptr %10, ptr %4, align 8
  call void @llvm.lifetime.start.p0(i64 8, ptr %5) #13
  %11 = load ptr, ptr %4, align 8
  %12 = icmp ne ptr %11, null
  br i1 %12, label %13, label %17

13:                                               ; preds = %1
  %14 = load ptr, ptr %4, align 8
  %15 = getelementptr inbounds nuw %struct.BusChild, ptr %14, i32 0, i32 1
  %16 = load ptr, ptr %15, align 8
  br label %18

17:                                               ; preds = %1
  br label %18

18:                                               ; preds = %17, %13
  %19 = phi ptr [ %16, %13 ], [ null, %17 ]
  store ptr %19, ptr %5, align 8
  %20 = load ptr, ptr %5, align 8
  call void @llvm.lifetime.end.p0(i64 8, ptr %5) #13
  call void @llvm.lifetime.end.p0(i64 8, ptr %4) #13
  call void @llvm.lifetime.end.p0(i64 8, ptr %3) #13
  ret ptr %20
}

; Function Attrs: nounwind sspstrong uwtable
define internal void @virtio_pci_notify_write_pio(ptr noundef %0, i64 noundef %1, i64 noundef %2, i32 noundef %3) #0 {
  %5 = alloca ptr, align 8
  %6 = alloca i64, align 8
  %7 = alloca i64, align 8
  %8 = alloca i32, align 4
  %9 = alloca ptr, align 8
  %10 = alloca ptr, align 8
  %11 = alloca i32, align 4
  store ptr %0, ptr %5, align 8
  store i64 %1, ptr %6, align 8
  store i64 %2, ptr %7, align 8
  store i32 %3, ptr %8, align 4
  call void @llvm.lifetime.start.p0(i64 8, ptr %9) #13
  %12 = load ptr, ptr %5, align 8
  store ptr %12, ptr %9, align 8
  call void @llvm.lifetime.start.p0(i64 8, ptr %10) #13
  %13 = load ptr, ptr %9, align 8
  %14 = getelementptr inbounds nuw %struct.VirtIOPCIProxy, ptr %13, i32 0, i32 25
  %15 = call ptr @virtio_bus_get_device(ptr noundef %14)
  store ptr %15, ptr %10, align 8
  call void @llvm.lifetime.start.p0(i64 4, ptr %11) #13
  %16 = load i64, ptr %7, align 8
  %17 = trunc i64 %16 to i32
  store i32 %17, ptr %11, align 4
  %18 = load ptr, ptr %10, align 8
  %19 = icmp ne ptr %18, null
  br i1 %19, label %20, label %29

20:                                               ; preds = %4
  %21 = load i32, ptr %11, align 4
  %22 = icmp ult i32 %21, 1024
  br i1 %22, label %23, label %29

23:                                               ; preds = %20
  %24 = load i64, ptr %6, align 8
  %25 = load i64, ptr %7, align 8
  %26 = load i32, ptr %8, align 4
  call void @trace_virtio_pci_notify_write_pio(i64 noundef %24, i64 noundef %25, i32 noundef %26)
  %27 = load ptr, ptr %10, align 8
  %28 = load i32, ptr %11, align 4
  call void @virtio_queue_notify(ptr noundef %27, i32 noundef %28)
  br label %29

29:                                               ; preds = %23, %20, %4
  call void @llvm.lifetime.end.p0(i64 4, ptr %11) #13
  call void @llvm.lifetime.end.p0(i64 8, ptr %10) #13
  call void @llvm.lifetime.end.p0(i64 8, ptr %9) #13
  ret void
}