; Function Attrs: nounwind sspstrong uwtable
define internal void @virtio_pci_notify_write_pio(ptr noundef readonly captures(none) %0, i64 noundef %1, i64 noundef %2, i32 noundef %3) #0 {
  %5 = alloca %struct.timeval, align 8
  %6 = getelementptr i8, ptr %0, i64 34160
  %.val = load ptr, ptr %6, align 8
  %.not.i = icmp eq ptr %.val, null
  br i1 %.not.i, label %virtio_bus_get_device.exit.thread, label %virtio_bus_get_device.exit

virtio_bus_get_device.exit:                       ; preds = %4
  %7 = getelementptr inbounds nuw i8, ptr %.val, i64 16
  %8 = load ptr, ptr %7, align 8
  %9 = trunc i64 %2 to i32
  %10 = icmp ne ptr %8, null
  %11 = icmp ult i32 %9, 1024
  %or.cond = and i1 %11, %10
  br i1 %or.cond, label %12, label %virtio_bus_get_device.exit.thread

12:                                               ; preds = %virtio_bus_get_device.exit
  %13 = load i32, ptr @trace_events_enabled_count, align 4
  %.not.i.i = icmp eq i32 %13, 0
  br i1 %.not.i.i, label %trace_virtio_pci_notify_write_pio.exit, label %14, !prof !19

14:                                               ; preds = %12
  %15 = load i16, ptr @_TRACE_VIRTIO_PCI_NOTIFY_WRITE_PIO_DSTATE, align 2
  %.not6.i.i = icmp eq i16 %15, 0
  br i1 %.not6.i.i, label %trace_virtio_pci_notify_write_pio.exit, label %16

16:                                               ; preds = %14
  %17 = load i32, ptr @qemu_loglevel, align 4
  %18 = and i32 %17, 32768
  %.not7.i.i = icmp eq i32 %18, 0
  br i1 %.not7.i.i, label %trace_virtio_pci_notify_write_pio.exit, label %19

19:                                               ; preds = %16
  %20 = load i8, ptr @message_with_timestamp, align 1, !range !7, !noundef !6
  %21 = trunc nuw i8 %20 to i1
  br i1 %21, label %22, label %28

22:                                               ; preds = %19
  call void @llvm.lifetime.start.p0(i64 16, ptr nonnull %5) #15
  call void @llvm.memset.p0.i64(ptr noundef nonnull align 8 dereferenceable(16) %5, i8 0, i64 16, i1 false), !annotation !16
  %23 = call i32 @gettimeofday(ptr noundef nonnull %5, ptr noundef null) #15
  %24 = tail call i32 @qemu_get_thread_id() #15
  %25 = load i64, ptr %5, align 8
  %26 = getelementptr inbounds nuw i8, ptr %5, i64 8
  %27 = load i64, ptr %26, align 8
  tail call void (ptr, ...) @qemu_log(ptr noundef nonnull @.str.62, i32 noundef %24, i64 noundef %25, i64 noundef %27, i64 noundef %1, i64 noundef %2, i32 noundef %3) #15
  call void @llvm.lifetime.end.p0(i64 16, ptr nonnull %5) #15
  br label %trace_virtio_pci_notify_write_pio.exit

28:                                               ; preds = %19
  tail call void (ptr, ...) @qemu_log(ptr noundef nonnull @.str.63, i64 noundef %1, i64 noundef %2, i32 noundef %3) #15
  br label %trace_virtio_pci_notify_write_pio.exit

trace_virtio_pci_notify_write_pio.exit:           ; preds = %12, %14, %16, %22, %28
  tail call void @virtio_queue_notify(ptr noundef nonnull %8, i32 noundef %9) #15
  br label %virtio_bus_get_device.exit.thread

virtio_bus_get_device.exit.thread:                ; preds = %4, %trace_virtio_pci_notify_write_pio.exit, %virtio_bus_get_device.exit
  ret void
}